; Function Attrs: mustprogress uwtable
define dso_local noundef ptr @_ZN5cmELF8GetRPathEv(ptr nocapture noundef nonnull readonly align 8 dereferenceable(40) %0) local_unnamed_addr #0 align 2 {
  %2 = load ptr, ptr %0, align 8
  %.not.i = icmp eq ptr %2, null
  br i1 %.not.i, label %_ZNK5cmELF5ValidEv.exit.thread, label %_ZNK5cmELF5ValidEv.exit

_ZNK5cmELF5ValidEv.exit:                          ; preds = %1
  %3 = getelementptr inbounds i8, ptr %2, i64 28
  %4 = load i32, ptr %3, align 4
  %5 = and i32 %4, -2
  %switch = icmp eq i32 %5, 2
  br i1 %switch, label %6, label %_ZNK5cmELF5ValidEv.exit.thread

6:                                                ; preds = %_ZNK5cmELF5ValidEv.exit
  %7 = load ptr, ptr %2, align 8
  %8 = getelementptr inbounds i8, ptr %7, i64 48
  %9 = load ptr, ptr %8, align 8
  %10 = tail call noundef ptr %9(ptr noundef nonnull align 8 dereferenceable(88) %2, i32 noundef 15)
  br label %_ZNK5cmELF5ValidEv.exit.thread

_ZNK5cmELF5ValidEv.exit.thread:                   ; preds = %1, %_ZNK5cmELF5ValidEv.exit, %6
  %.0 = phi ptr [ %10, %6 ], [ null, %_ZNK5cmELF5ValidEv.exit ], [ null, %1 ]
  ret ptr %.0
}